target datalayout = "e-m:e-p270:32:32-p271:32:32-p272:64:64-i64:64-i128:128-f80:128-n8:16:32:64-S128"
target triple = "x86_64-pc-linux-gnu"

%"struct.vcpkg::Version" = type <{ %"class.std::__cxx11::basic_string", i32, [4 x i8] }>
%"class.std::__cxx11::basic_string" = type { %"struct.std::__cxx11::basic_string<char>::_Alloc_hider", i64, %union.anon }
%"struct.std::__cxx11::basic_string<char>::_Alloc_hider" = type { ptr }
%union.anon = type { i64, [8 x i8] }
%"struct.vcpkg::VersionDiff" = type { %"struct.vcpkg::Version", %"struct.vcpkg::Version" }

@_ZN5vcpkg7VersionC1Ev = dso_local unnamed_addr alias void (ptr), ptr @_ZN5vcpkg7VersionC2Ev

; Function Attrs: mustprogress nounwind uwtable
define dso_local void @_ZN5vcpkg11VersionDiffC2Ev(ptr noundef nonnull align 8 dereferenceable(80) %0) unnamed_addr #0 align 2 {
  %2 = alloca ptr, align 8
  store ptr %0, ptr %2, align 8
  %3 = load ptr, ptr %2, align 8
  %4 = getelementptr inbounds %"struct.vcpkg::VersionDiff", ptr %3, i32 0, i32 0
  call void @_ZN5vcpkg7VersionC1Ev(ptr noundef nonnull align 8 dereferenceable(36) %4) #13
  %5 = getelementptr inbounds %"struct.vcpkg::VersionDiff", ptr %3, i32 0, i32 1
  call void @_ZN5vcpkg7VersionC1Ev(ptr noundef nonnull align 8 dereferenceable(36) %5) #13
  ret void
}