; Function Attrs: mustprogress nounwind uwtable
define dso_local void @_ZN5vcpkg11VersionDiffC2Ev(ptr noundef nonnull align 8 dereferenceable(80) %0) unnamed_addr #0 align 2 {
  tail call void @_ZNSt7__cxx1112basic_stringIcSt11char_traitsIcESaIcEEC1Ev(ptr noundef nonnull align 8 dereferenceable(32) %0) #19
  %2 = getelementptr inbounds i8, ptr %0, i64 32
  store i32 0, ptr %2, align 8
  %3 = getelementptr inbounds i8, ptr %0, i64 40
  tail call void @_ZNSt7__cxx1112basic_stringIcSt11char_traitsIcESaIcEEC1Ev(ptr noundef nonnull align 8 dereferenceable(32) %3) #19
  %4 = getelementptr inbounds i8, ptr %0, i64 72
  store i32 0, ptr %4, align 8
  ret void
}